target datalayout = "e-m:e-p270:32:32-p271:32:32-p272:64:64-i64:64-i128:128-f80:128-n8:16:32:64-S128"
target triple = "x86_64-pc-linux-gnu"

%struct.AVFilterContext = type { ptr, ptr, ptr, ptr, ptr, i32, ptr, ptr, i32, ptr, ptr, i32, i32, ptr, ptr, ptr, ptr, i32, ptr, i32, i32 }
%struct.ThresholdContext = type { ptr, i32, i32, i32, i32, [4 x i32], [4 x i32], ptr, [4 x ptr], %struct.FFFrameSync }
%struct.FFFrameSync = type { ptr, ptr, i32, %struct.AVRational, i64, ptr, ptr, i32, i32, i8, i8, ptr, i32, i32, i32, i32 }
%struct.AVRational = type { i32, i32 }
%struct.AVFilterLink = type { ptr, ptr, ptr, ptr, i32, i32, i32, i32, %struct.AVRational, i32, i32, i32, %struct.AVChannelLayout, %struct.AVRational, ptr, i32, %struct.AVFilterFormatsConfig, %struct.AVFilterFormatsConfig }
%struct.AVChannelLayout = type { i32, i32, %union.anon.1, ptr }
%union.anon.1 = type { i64 }
%struct.AVFilterFormatsConfig = type { ptr, ptr, ptr, ptr, ptr }
%struct.ThreadData = type { ptr, ptr, ptr, ptr, ptr }
%struct.AVFrame = type { [8 x ptr], [8 x i32], ptr, i32, i32, i32, i32, i32, %struct.AVRational, i64, i64, %struct.AVRational, i32, ptr, i32, i32, [8 x ptr], ptr, i32, ptr, i32, i32, i32, i32, i32, i32, i32, i64, ptr, i32, ptr, ptr, i64, i64, i64, i64, ptr, %struct.AVChannelLayout, i64 }

; Function Attrs: nounwind uwtable
define internal i32 @process_frame(ptr noundef %0) #2 {
  %2 = alloca i32, align 4
  %3 = alloca ptr, align 8
  %4 = alloca ptr, align 8
  %5 = alloca ptr, align 8
  %6 = alloca ptr, align 8
  %7 = alloca ptr, align 8
  %8 = alloca ptr, align 8
  %9 = alloca ptr, align 8
  %10 = alloca ptr, align 8
  %11 = alloca ptr, align 8
  %12 = alloca %struct.ThreadData, align 8
  %13 = alloca i32, align 4
  %14 = alloca i32, align 4
  store ptr %0, ptr %3, align 8, !tbaa !82
  call void @llvm.lifetime.start.p0(i64 8, ptr %4) #9
  %15 = load ptr, ptr %3, align 8, !tbaa !82
  %16 = getelementptr inbounds nuw %struct.FFFrameSync, ptr %15, i32 0, i32 1
  %17 = load ptr, ptr %16, align 8, !tbaa !84
  store ptr %17, ptr %4, align 8, !tbaa !4
  call void @llvm.lifetime.start.p0(i64 8, ptr %5) #9
  %18 = load ptr, ptr %3, align 8, !tbaa !82
  %19 = getelementptr inbounds nuw %struct.FFFrameSync, ptr %18, i32 0, i32 6
  %20 = load ptr, ptr %19, align 8, !tbaa !85
  store ptr %20, ptr %5, align 8, !tbaa !22
  call void @llvm.lifetime.start.p0(i64 8, ptr %6) #9
  %21 = load ptr, ptr %4, align 8, !tbaa !4
  %22 = getelementptr inbounds nuw %struct.AVFilterContext, ptr %21, i32 0, i32 7
  %23 = load ptr, ptr %22, align 8, !tbaa !86
  %24 = getelementptr inbounds ptr, ptr %23, i64 0
  %25 = load ptr, ptr %24, align 8, !tbaa !24
  store ptr %25, ptr %6, align 8, !tbaa !24
  call void @llvm.lifetime.start.p0(i64 8, ptr %7) #9
  call void @llvm.lifetime.start.p0(i64 8, ptr %8) #9
  call void @llvm.lifetime.start.p0(i64 8, ptr %9) #9
  call void @llvm.lifetime.start.p0(i64 8, ptr %10) #9
  call void @llvm.lifetime.start.p0(i64 8, ptr %11) #9
  call void @llvm.lifetime.start.p0(i64 40, ptr %12) #9
  call void @llvm.lifetime.start.p0(i64 4, ptr %13) #9
  %26 = load ptr, ptr %5, align 8, !tbaa !22
  %27 = getelementptr inbounds nuw %struct.ThresholdContext, ptr %26, i32 0, i32 9
  %28 = call i32 @ff_framesync_get_frame(ptr noundef %27, i32 noundef 0, ptr noundef %8, i32 noundef 0)
  store i32 %28, ptr %13, align 4, !tbaa !44
  %29 = icmp slt i32 %28, 0
  br i1 %29, label %45, label %30

30:                                               ; preds = %1
  %31 = load ptr, ptr %5, align 8, !tbaa !22
  %32 = getelementptr inbounds nuw %struct.ThresholdContext, ptr %31, i32 0, i32 9
  %33 = call i32 @ff_framesync_get_frame(ptr noundef %32, i32 noundef 1, ptr noundef %9, i32 noundef 0)
  store i32 %33, ptr %13, align 4, !tbaa !44
  %34 = icmp slt i32 %33, 0
  br i1 %34, label %45, label %35

35:                                               ; preds = %30
  %36 = load ptr, ptr %5, align 8, !tbaa !22
  %37 = getelementptr inbounds nuw %struct.ThresholdContext, ptr %36, i32 0, i32 9
  %38 = call i32 @ff_framesync_get_frame(ptr noundef %37, i32 noundef 2, ptr noundef %10, i32 noundef 0)
  store i32 %38, ptr %13, align 4, !tbaa !44
  %39 = icmp slt i32 %38, 0
  br i1 %39, label %45, label %40

40:                                               ; preds = %35
  %41 = load ptr, ptr %5, align 8, !tbaa !22
  %42 = getelementptr inbounds nuw %struct.ThresholdContext, ptr %41, i32 0, i32 9
  %43 = call i32 @ff_framesync_get_frame(ptr noundef %42, i32 noundef 3, ptr noundef %11, i32 noundef 0)
  store i32 %43, ptr %13, align 4, !tbaa !44
  %44 = icmp slt i32 %43, 0
  br i1 %44, label %45, label %47

45:                                               ; preds = %40, %35, %30, %1
  %46 = load i32, ptr %13, align 4, !tbaa !44
  store i32 %46, ptr %2, align 4
  store i32 1, ptr %14, align 4
  br label %122

47:                                               ; preds = %40
  %48 = load ptr, ptr %4, align 8, !tbaa !4
  %49 = getelementptr inbounds nuw %struct.AVFilterContext, ptr %48, i32 0, i32 17
  %50 = load i32, ptr %49, align 8, !tbaa !87
  %51 = icmp ne i32 %50, 0
  br i1 %51, label %52, label %59

52:                                               ; preds = %47
  %53 = load ptr, ptr %8, align 8, !tbaa !88
  %54 = call ptr @av_frame_clone(ptr noundef %53)
  store ptr %54, ptr %7, align 8, !tbaa !88
  %55 = load ptr, ptr %7, align 8, !tbaa !88
  %56 = icmp ne ptr %55, null
  br i1 %56, label %58, label %57

57:                                               ; preds = %52
  store i32 -12, ptr %2, align 4
  store i32 1, ptr %14, align 4
  br label %122

58:                                               ; preds = %52
  br label %104

59:                                               ; preds = %47
  %60 = load ptr, ptr %6, align 8, !tbaa !24
  %61 = load ptr, ptr %6, align 8, !tbaa !24
  %62 = getelementptr inbounds nuw %struct.AVFilterLink, ptr %61, i32 0, i32 6
  %63 = load i32, ptr %62, align 8, !tbaa !47
  %64 = load ptr, ptr %6, align 8, !tbaa !24
  %65 = getelementptr inbounds nuw %struct.AVFilterLink, ptr %64, i32 0, i32 7
  %66 = load i32, ptr %65, align 4, !tbaa !46
  %67 = call ptr @ff_get_video_buffer(ptr noundef %60, i32 noundef %63, i32 noundef %66)
  store ptr %67, ptr %7, align 8, !tbaa !88
  %68 = load ptr, ptr %7, align 8, !tbaa !88
  %69 = icmp ne ptr %68, null
  br i1 %69, label %71, label %70

70:                                               ; preds = %59
  store i32 -12, ptr %2, align 4
  store i32 1, ptr %14, align 4
  br label %122

71:                                               ; preds = %59
  %72 = load ptr, ptr %7, align 8, !tbaa !88
  %73 = load ptr, ptr %8, align 8, !tbaa !88
  %74 = call i32 @av_frame_copy_props(ptr noundef %72, ptr noundef %73)
  %75 = load ptr, ptr %7, align 8, !tbaa !88
  %76 = getelementptr inbounds nuw %struct.ThreadData, ptr %12, i32 0, i32 4
  store ptr %75, ptr %76, align 8, !tbaa !89
  %77 = load ptr, ptr %8, align 8, !tbaa !88
  %78 = getelementptr inbounds nuw %struct.ThreadData, ptr %12, i32 0, i32 0
  store ptr %77, ptr %78, align 8, !tbaa !91
  %79 = load ptr, ptr %9, align 8, !tbaa !88
  %80 = getelementptr inbounds nuw %struct.ThreadData, ptr %12, i32 0, i32 1
  store ptr %79, ptr %80, align 8, !tbaa !92
  %81 = load ptr, ptr %10, align 8, !tbaa !88
  %82 = getelementptr inbounds nuw %struct.ThreadData, ptr %12, i32 0, i32 2
  store ptr %81, ptr %82, align 8, !tbaa !93
  %83 = load ptr, ptr %11, align 8, !tbaa !88
  %84 = getelementptr inbounds nuw %struct.ThreadData, ptr %12, i32 0, i32 3
  store ptr %83, ptr %84, align 8, !tbaa !94
  %85 = load ptr, ptr %4, align 8, !tbaa !4
  %86 = load ptr, ptr %5, align 8, !tbaa !22
  %87 = getelementptr inbounds nuw %struct.ThresholdContext, ptr %86, i32 0, i32 6
  %88 = getelementptr inbounds [4 x i32], ptr %87, i64 0, i64 2
  %89 = load i32, ptr %88, align 8, !tbaa !44
  %90 = load ptr, ptr %4, align 8, !tbaa !4
  %91 = call i32 @ff_filter_get_nb_threads(ptr noundef %90) #10
  %92 = icmp sgt i32 %89, %91
  br i1 %92, label %93, label %96

93:                                               ; preds = %71
  %94 = load ptr, ptr %4, align 8, !tbaa !4
  %95 = call i32 @ff_filter_get_nb_threads(ptr noundef %94) #10
  br label %101

96:                                               ; preds = %71
  %97 = load ptr, ptr %5, align 8, !tbaa !22
  %98 = getelementptr inbounds nuw %struct.ThresholdContext, ptr %97, i32 0, i32 6
  %99 = getelementptr inbounds [4 x i32], ptr %98, i64 0, i64 2
  %100 = load i32, ptr %99, align 8, !tbaa !44
  br label %101

101:                                              ; preds = %96, %93
  %102 = phi i32 [ %95, %93 ], [ %100, %96 ]
  %103 = call i32 @ff_filter_execute(ptr noundef %85, ptr noundef @filter_slice, ptr noundef %12, ptr noundef null, i32 noundef %102)
  br label %104

104:                                              ; preds = %101, %58
  %105 = load ptr, ptr %5, align 8, !tbaa !22
  %106 = getelementptr inbounds nuw %struct.ThresholdContext, ptr %105, i32 0, i32 9
  %107 = getelementptr inbounds nuw %struct.FFFrameSync, ptr %106, i32 0, i32 4
  %108 = load i64, ptr %107, align 8, !tbaa !95
  %109 = load ptr, ptr %5, align 8, !tbaa !22
  %110 = getelementptr inbounds nuw %struct.ThresholdContext, ptr %109, i32 0, i32 9
  %111 = getelementptr inbounds nuw %struct.FFFrameSync, ptr %110, i32 0, i32 3
  %112 = load ptr, ptr %6, align 8, !tbaa !24
  %113 = getelementptr inbounds nuw %struct.AVFilterLink, ptr %112, i32 0, i32 13
  %114 = load i64, ptr %111, align 4
  %115 = load i64, ptr %113, align 8
  %116 = call i64 @av_rescale_q(i64 noundef %108, i64 %114, i64 %115) #11
  %117 = load ptr, ptr %7, align 8, !tbaa !88
  %118 = getelementptr inbounds nuw %struct.AVFrame, ptr %117, i32 0, i32 9
  store i64 %116, ptr %118, align 8, !tbaa !96
  %119 = load ptr, ptr %6, align 8, !tbaa !24
  %120 = load ptr, ptr %7, align 8, !tbaa !88
  %121 = call i32 @ff_filter_frame(ptr noundef %119, ptr noundef %120)
  store i32 %121, ptr %2, align 4
  store i32 1, ptr %14, align 4
  br label %122

122:                                              ; preds = %104, %70, %57, %45
  call void @llvm.lifetime.end.p0(i64 4, ptr %13) #9
  call void @llvm.lifetime.end.p0(i64 40, ptr %12) #9
  call void @llvm.lifetime.end.p0(i64 8, ptr %11) #9
  call void @llvm.lifetime.end.p0(i64 8, ptr %10) #9
  call void @llvm.lifetime.end.p0(i64 8, ptr %9) #9
  call void @llvm.lifetime.end.p0(i64 8, ptr %8) #9
  call void @llvm.lifetime.end.p0(i64 8, ptr %7) #9
  call void @llvm.lifetime.end.p0(i64 8, ptr %6) #9
  call void @llvm.lifetime.end.p0(i64 8, ptr %5) #9
  call void @llvm.lifetime.end.p0(i64 8, ptr %4) #9
  %123 = load i32, ptr %2, align 4
  ret i32 %123
}