; Function Attrs: nounwind uwtable
define internal i32 @process_frame(ptr noundef readonly captures(none) %0) #2 {
  %2 = alloca ptr, align 8
  %3 = alloca ptr, align 8
  %4 = alloca ptr, align 8
  %5 = alloca ptr, align 8
  %6 = alloca %struct.ThreadData, align 8
  %7 = getelementptr inbounds nuw i8, ptr %0, i64 8
  %8 = load ptr, ptr %7, align 8, !tbaa !69
  %9 = getelementptr inbounds nuw i8, ptr %0, i64 48
  %10 = load ptr, ptr %9, align 8, !tbaa !70
  %11 = getelementptr inbounds nuw i8, ptr %8, i64 56
  %12 = load ptr, ptr %11, align 8, !tbaa !71
  %13 = load ptr, ptr %12, align 8, !tbaa !56
  call void @llvm.lifetime.start.p0(i64 8, ptr nonnull %2) #8
  call void @llvm.lifetime.start.p0(i64 8, ptr nonnull %3) #8
  call void @llvm.lifetime.start.p0(i64 8, ptr nonnull %4) #8
  call void @llvm.lifetime.start.p0(i64 8, ptr nonnull %5) #8
  call void @llvm.lifetime.start.p0(i64 40, ptr nonnull %6) #8
  %14 = getelementptr inbounds nuw i8, ptr %10, i64 96
  %15 = call i32 @ff_framesync_get_frame(ptr noundef nonnull %14, i32 noundef 0, ptr noundef nonnull %2, i32 noundef 0) #8
  %16 = icmp slt i32 %15, 0
  br i1 %16, label %63, label %17

17:                                               ; preds = %1
  %18 = call i32 @ff_framesync_get_frame(ptr noundef nonnull %14, i32 noundef 1, ptr noundef nonnull %3, i32 noundef 0) #8
  %19 = icmp slt i32 %18, 0
  br i1 %19, label %63, label %20

20:                                               ; preds = %17
  %21 = call i32 @ff_framesync_get_frame(ptr noundef nonnull %14, i32 noundef 2, ptr noundef nonnull %4, i32 noundef 0) #8
  %22 = icmp slt i32 %21, 0
  br i1 %22, label %63, label %23

23:                                               ; preds = %20
  %24 = call i32 @ff_framesync_get_frame(ptr noundef nonnull %14, i32 noundef 3, ptr noundef nonnull %5, i32 noundef 0) #8
  %25 = icmp slt i32 %24, 0
  br i1 %25, label %63, label %26

26:                                               ; preds = %23
  %27 = getelementptr inbounds nuw i8, ptr %8, i64 128
  %28 = load i32, ptr %27, align 8, !tbaa !72
  %.not = icmp eq i32 %28, 0
  br i1 %.not, label %32, label %29

29:                                               ; preds = %26
  %30 = load ptr, ptr %2, align 8, !tbaa !73
  %31 = call ptr @av_frame_clone(ptr noundef %30) #8
  %.not38 = icmp eq ptr %31, null
  br i1 %.not38, label %63, label %53

32:                                               ; preds = %26
  %33 = getelementptr inbounds nuw i8, ptr %13, i64 40
  %34 = load i32, ptr %33, align 8, !tbaa !40
  %35 = getelementptr inbounds nuw i8, ptr %13, i64 44
  %36 = load i32, ptr %35, align 4, !tbaa !37
  %37 = call ptr @ff_get_video_buffer(ptr noundef %13, i32 noundef %34, i32 noundef %36) #8
  %.not37 = icmp eq ptr %37, null
  br i1 %.not37, label %63, label %38

38:                                               ; preds = %32
  %39 = load ptr, ptr %2, align 8, !tbaa !73
  %40 = call i32 @av_frame_copy_props(ptr noundef nonnull %37, ptr noundef %39) #8
  %41 = getelementptr inbounds nuw i8, ptr %6, i64 32
  store ptr %37, ptr %41, align 8, !tbaa !74
  %42 = load ptr, ptr %2, align 8, !tbaa !73
  store ptr %42, ptr %6, align 8, !tbaa !76
  %43 = load ptr, ptr %3, align 8, !tbaa !73
  %44 = getelementptr inbounds nuw i8, ptr %6, i64 8
  store ptr %43, ptr %44, align 8, !tbaa !77
  %45 = load ptr, ptr %4, align 8, !tbaa !73
  %46 = getelementptr inbounds nuw i8, ptr %6, i64 16
  store ptr %45, ptr %46, align 8, !tbaa !78
  %47 = load ptr, ptr %5, align 8, !tbaa !73
  %48 = getelementptr inbounds nuw i8, ptr %6, i64 24
  store ptr %47, ptr %48, align 8, !tbaa !79
  %49 = getelementptr inbounds nuw i8, ptr %10, i64 48
  %50 = load i32, ptr %49, align 8, !tbaa !39
  %51 = call i32 @ff_filter_get_nb_threads(ptr noundef nonnull %8) #9
  %. = call i32 @llvm.smin.i32(i32 %50, i32 %51)
  %52 = call i32 @ff_filter_execute(ptr noundef nonnull %8, ptr noundef nonnull @filter_slice, ptr noundef nonnull %6, ptr noundef null, i32 noundef %.) #8
  br label %53

53:                                               ; preds = %29, %38
  %.027 = phi ptr [ %31, %29 ], [ %37, %38 ]
  %54 = getelementptr inbounds nuw i8, ptr %10, i64 128
  %55 = load i64, ptr %54, align 8, !tbaa !80
  %56 = getelementptr inbounds nuw i8, ptr %10, i64 116
  %57 = getelementptr inbounds nuw i8, ptr %13, i64 96
  %58 = load i64, ptr %56, align 4
  %59 = load i64, ptr %57, align 8
  %60 = call i64 @av_rescale_q(i64 noundef %55, i64 %58, i64 %59) #10
  %61 = getelementptr inbounds nuw i8, ptr %.027, i64 136
  store i64 %60, ptr %61, align 8, !tbaa !81
  %62 = call i32 @ff_filter_frame(ptr noundef %13, ptr noundef nonnull %.027) #8
  br label %63

63:                                               ; preds = %32, %29, %1, %17, %20, %23, %53
  %.028 = phi i32 [ %62, %53 ], [ %15, %1 ], [ %18, %17 ], [ %21, %20 ], [ %24, %23 ], [ -12, %29 ], [ -12, %32 ]
  call void @llvm.lifetime.end.p0(i64 40, ptr nonnull %6) #8
  call void @llvm.lifetime.end.p0(i64 8, ptr nonnull %5) #8
  call void @llvm.lifetime.end.p0(i64 8, ptr nonnull %4) #8
  call void @llvm.lifetime.end.p0(i64 8, ptr nonnull %3) #8
  call void @llvm.lifetime.end.p0(i64 8, ptr nonnull %2) #8
  ret i32 %.028
}